target datalayout = "e-m:e-p270:32:32-p271:32:32-p272:64:64-i64:64-i128:128-f80:128-n8:16:32:64-S128"
target triple = "x86_64-pc-linux-gnu"

; Function Attrs: mustprogress uwtable
define dso_local noundef zeroext i1 @_ZN5ImGui10SelectableEPKcPbiRK6ImVec2(ptr noundef %0, ptr noundef %1, i32 noundef %2, ptr noundef nonnull align 4 dereferenceable(8) %3) #8 {
  %5 = alloca i1, align 1
  %6 = alloca ptr, align 8
  %7 = alloca ptr, align 8
  %8 = alloca i32, align 4
  %9 = alloca ptr, align 8
  store ptr %0, ptr %6, align 8, !tbaa !4
  store ptr %1, ptr %7, align 8, !tbaa !188
  store i32 %2, ptr %8, align 4, !tbaa !9
  store ptr %3, ptr %9, align 8, !tbaa !174
  %10 = load ptr, ptr %6, align 8, !tbaa !4
  %11 = load ptr, ptr %7, align 8, !tbaa !188
  %12 = load i8, ptr %11, align 1, !tbaa !67, !range !59, !noundef !60
  %13 = trunc i8 %12 to i1
  %14 = load i32, ptr %8, align 4, !tbaa !9
  %15 = load ptr, ptr %9, align 8, !tbaa !174
  %16 = call noundef zeroext i1 @_ZN5ImGui10SelectableEPKcbiRK6ImVec2(ptr noundef %10, i1 noundef zeroext %13, i32 noundef %14, ptr noundef nonnull align 4 dereferenceable(8) %15)
  br i1 %16, label %17, label %24

17:                                               ; preds = %4
  %18 = load ptr, ptr %7, align 8, !tbaa !188
  %19 = load i8, ptr %18, align 1, !tbaa !67, !range !59, !noundef !60
  %20 = trunc i8 %19 to i1
  %21 = xor i1 %20, true
  %22 = load ptr, ptr %7, align 8, !tbaa !188
  %23 = zext i1 %21 to i8
  store i8 %23, ptr %22, align 1, !tbaa !67
  store i1 true, ptr %5, align 1
  br label %25

24:                                               ; preds = %4
  store i1 false, ptr %5, align 1
  br label %25

25:                                               ; preds = %24, %17
  %26 = load i1, ptr %5, align 1
  ret i1 %26
}