; Function Attrs: mustprogress uwtable
define dso_local noundef zeroext i1 @_ZN5ImGui10SelectableEPKcPbiRK6ImVec2(ptr noundef %0, ptr noundef captures(none) %1, i32 noundef %2, ptr noundef nonnull readonly align 4 captures(none) dereferenceable(8) %3) local_unnamed_addr #5 {
  %5 = load i8, ptr %1, align 1, !tbaa !207, !range !152, !noundef !153
  %6 = trunc nuw i8 %5 to i1
  %7 = tail call noundef zeroext i1 @_ZN5ImGui10SelectableEPKcbiRK6ImVec2(ptr noundef %0, i1 noundef zeroext %6, i32 noundef %2, ptr noundef nonnull align 4 dereferenceable(8) %3)
  br i1 %7, label %8, label %11

8:                                                ; preds = %4
  %9 = load i8, ptr %1, align 1, !tbaa !207, !range !152, !noundef !153
  %10 = xor i8 %9, 1
  store i8 %10, ptr %1, align 1, !tbaa !207
  br label %11

11:                                               ; preds = %4, %8
  ret i1 %7
}